target datalayout = "e-m:e-p270:32:32-p271:32:32-p272:64:64-i64:64-i128:128-f80:128-n8:16:32:64-S128"
target triple = "x86_64-unknown-linux-gnu"

%struct.hmac_ctx_st = type { ptr, %struct.env_md_ctx_st, %struct.env_md_ctx_st, %struct.env_md_ctx_st }
%struct.env_md_ctx_st = type { ptr, ptr, ptr, ptr }

; Function Attrs: nounwind uwtable
define hidden i32 @HMAC_CTX_copy_ex(ptr noundef %dest, ptr noundef %src) #0 {
entry:
  %retval = alloca i32, align 4
  %dest.addr = alloca ptr, align 8
  %src.addr = alloca ptr, align 8
  store ptr %dest, ptr %dest.addr, align 8
  store ptr %src, ptr %src.addr, align 8
  %0 = load ptr, ptr %dest.addr, align 8
  %i_ctx = getelementptr inbounds %struct.hmac_ctx_st, ptr %0, i32 0, i32 2
  %1 = load ptr, ptr %src.addr, align 8
  %i_ctx1 = getelementptr inbounds %struct.hmac_ctx_st, ptr %1, i32 0, i32 2
  %call = call i32 @EVP_MD_CTX_copy_ex(ptr noundef %i_ctx, ptr noundef %i_ctx1)
  %tobool = icmp ne i32 %call, 0
  br i1 %tobool, label %lor.lhs.false, label %if.then

lor.lhs.false:                                    ; preds = %entry
  %2 = load ptr, ptr %dest.addr, align 8
  %o_ctx = getelementptr inbounds %struct.hmac_ctx_st, ptr %2, i32 0, i32 3
  %3 = load ptr, ptr %src.addr, align 8
  %o_ctx2 = getelementptr inbounds %struct.hmac_ctx_st, ptr %3, i32 0, i32 3
  %call3 = call i32 @EVP_MD_CTX_copy_ex(ptr noundef %o_ctx, ptr noundef %o_ctx2)
  %tobool4 = icmp ne i32 %call3, 0
  br i1 %tobool4, label %lor.lhs.false5, label %if.then

lor.lhs.false5:                                   ; preds = %lor.lhs.false
  %4 = load ptr, ptr %dest.addr, align 8
  %md_ctx = getelementptr inbounds %struct.hmac_ctx_st, ptr %4, i32 0, i32 1
  %5 = load ptr, ptr %src.addr, align 8
  %md_ctx6 = getelementptr inbounds %struct.hmac_ctx_st, ptr %5, i32 0, i32 1
  %call7 = call i32 @EVP_MD_CTX_copy_ex(ptr noundef %md_ctx, ptr noundef %md_ctx6)
  %tobool8 = icmp ne i32 %call7, 0
  br i1 %tobool8, label %if.end, label %if.then

if.then:                                          ; preds = %lor.lhs.false5, %lor.lhs.false, %entry
  store i32 0, ptr %retval, align 4
  br label %return

if.end:                                           ; preds = %lor.lhs.false5
  %6 = load ptr, ptr %src.addr, align 8
  %md = getelementptr inbounds %struct.hmac_ctx_st, ptr %6, i32 0, i32 0
  %7 = load ptr, ptr %md, align 8
  %8 = load ptr, ptr %dest.addr, align 8
  %md9 = getelementptr inbounds %struct.hmac_ctx_st, ptr %8, i32 0, i32 0
  store ptr %7, ptr %md9, align 8
  store i32 1, ptr %retval, align 4
  br label %return

return:                                           ; preds = %if.end, %if.then
  %9 = load i32, ptr %retval, align 4
  ret i32 %9
}

; Function Attrs: nounwind uwtable
define hidden void @HMAC_CTX_init(ptr noundef %ctx) #0 {
entry:
  %ctx.addr = alloca ptr, align 8
  store ptr %ctx, ptr %ctx.addr, align 8
  %0 = load ptr, ptr %ctx.addr, align 8
  %md = getelementptr inbounds %struct.hmac_ctx_st, ptr %0, i32 0, i32 0
  store ptr null, ptr %md, align 8
  %1 = load ptr, ptr %ctx.addr, align 8
  %i_ctx = getelementptr inbounds %struct.hmac_ctx_st, ptr %1, i32 0, i32 2
  call void @EVP_MD_CTX_init(ptr noundef %i_ctx)
  %2 = load ptr, ptr %ctx.addr, align 8
  %o_ctx = getelementptr inbounds %struct.hmac_ctx_st, ptr %2, i32 0, i32 3
  call void @EVP_MD_CTX_init(ptr noundef %o_ctx)
  %3 = load ptr, ptr %ctx.addr, align 8
  %md_ctx = getelementptr inbounds %struct.hmac_ctx_st, ptr %3, i32 0, i32 1
  call void @EVP_MD_CTX_init(ptr noundef %md_ctx)
  ret void
}

; Function Attrs: nounwind uwtable
define hidden i32 @HMAC_CTX_copy(ptr noundef %dest, ptr noundef %src) #0 {
entry:
  %dest.addr = alloca ptr, align 8
  %src.addr = alloca ptr, align 8
  store ptr %dest, ptr %dest.addr, align 8
  store ptr %src, ptr %src.addr, align 8
  %0 = load ptr, ptr %dest.addr, align 8
  call void @HMAC_CTX_init(ptr noundef %0)
  %1 = load ptr, ptr %dest.addr, align 8
  %2 = load ptr, ptr %src.addr, align 8
  %call = call i32 @HMAC_CTX_copy_ex(ptr noundef %1, ptr noundef %2)
  ret i32 %call
}