; Function Attrs: nounwind uwtable
define hidden range(i32 0, 2) i32 @HMAC_CTX_copy(ptr noundef initializes((0, 8)) %dest, ptr noundef %src) local_unnamed_addr #0 {
entry:
  store ptr null, ptr %dest, align 8
  %i_ctx.i = getelementptr inbounds nuw i8, ptr %dest, i64 40
  tail call void @EVP_MD_CTX_init(ptr noundef nonnull %i_ctx.i) #5
  %o_ctx.i = getelementptr inbounds nuw i8, ptr %dest, i64 72
  tail call void @EVP_MD_CTX_init(ptr noundef nonnull %o_ctx.i) #5
  %md_ctx.i = getelementptr inbounds nuw i8, ptr %dest, i64 8
  tail call void @EVP_MD_CTX_init(ptr noundef nonnull %md_ctx.i) #5
  %i_ctx1.i = getelementptr inbounds nuw i8, ptr %src, i64 40
  %call.i = tail call i32 @EVP_MD_CTX_copy_ex(ptr noundef nonnull %i_ctx.i, ptr noundef nonnull %i_ctx1.i) #5
  %tobool.not.i = icmp eq i32 %call.i, 0
  br i1 %tobool.not.i, label %HMAC_CTX_copy_ex.exit, label %lor.lhs.false.i

lor.lhs.false.i:                                  ; preds = %entry
  %o_ctx2.i = getelementptr inbounds nuw i8, ptr %src, i64 72
  %call3.i = tail call i32 @EVP_MD_CTX_copy_ex(ptr noundef nonnull %o_ctx.i, ptr noundef nonnull %o_ctx2.i) #5
  %tobool4.not.i = icmp eq i32 %call3.i, 0
  br i1 %tobool4.not.i, label %HMAC_CTX_copy_ex.exit, label %lor.lhs.false5.i

lor.lhs.false5.i:                                 ; preds = %lor.lhs.false.i
  %md_ctx6.i = getelementptr inbounds nuw i8, ptr %src, i64 8
  %call7.i = tail call i32 @EVP_MD_CTX_copy_ex(ptr noundef nonnull %md_ctx.i, ptr noundef nonnull %md_ctx6.i) #5
  %tobool8.not.i = icmp eq i32 %call7.i, 0
  br i1 %tobool8.not.i, label %HMAC_CTX_copy_ex.exit, label %if.end.i

if.end.i:                                         ; preds = %lor.lhs.false5.i
  %0 = load ptr, ptr %src, align 8
  store ptr %0, ptr %dest, align 8
  br label %HMAC_CTX_copy_ex.exit

HMAC_CTX_copy_ex.exit:                            ; preds = %entry, %lor.lhs.false.i, %lor.lhs.false5.i, %if.end.i
  %retval.0.i = phi i32 [ 1, %if.end.i ], [ 0, %lor.lhs.false5.i ], [ 0, %lor.lhs.false.i ], [ 0, %entry ]
  ret i32 %retval.0.i
}